target datalayout = "e-m:e-p270:32:32-p271:32:32-p272:64:64-i64:64-i128:128-f80:128-n8:16:32:64-S128"
target triple = "x86_64-pc-linux-gnu"

%"class.zmq::fq_t" = type <{ %"class.zmq::array_t", i64, i64, i8, [7 x i8] }>
%"class.zmq::array_t" = type { %"class.std::vector" }
%"class.std::vector" = type { %"struct.std::_Vector_base" }
%"struct.std::_Vector_base" = type { %"struct.std::_Vector_base<zmq::pipe_t *, std::allocator<zmq::pipe_t *>>::_Vector_impl" }
%"struct.std::_Vector_base<zmq::pipe_t *, std::allocator<zmq::pipe_t *>>::_Vector_impl" = type { %"struct.std::_Vector_base<zmq::pipe_t *, std::allocator<zmq::pipe_t *>>::_Vector_impl_data" }
%"struct.std::_Vector_base<zmq::pipe_t *, std::allocator<zmq::pipe_t *>>::_Vector_impl_data" = type { ptr, ptr, ptr }
%"class.zmq::array_item_t" = type <{ ptr, i32, [4 x i8] }>

@stderr = external global ptr, align 8
@.str = private unnamed_addr constant [30 x i8] c"Assertion failed: %s (%s:%d)\0A\00", align 1
@.str.2 = private unnamed_addr constant [102 x i8] c"generated/home/dtcxzyw/WorkSpace/Projects/compilers/llvm-opt-benchmark/bench/libzmq/libzmq/src/fq.cpp\00", align 1
@.str.3 = private unnamed_addr constant [12 x i8] c"%s (%s:%d)\0A\00", align 1
@.str.4 = private unnamed_addr constant [7 x i8] c"!_more\00", align 1

; Function Attrs: inlinehint mustprogress nounwind uwtable
define linkonce_odr void @_ZSt4swapIPN3zmq6pipe_tEENSt9enable_ifIXsr6__and_ISt6__not_ISt15__is_tuple_likeIT_EESt21is_move_constructibleIS6_ESt18is_move_assignableIS6_EEE5valueEvE4typeERS6_SF_(ptr noundef nonnull align 8 dereferenceable(8) %0, ptr noundef nonnull align 8 dereferenceable(8) %1) #5 comdat {
  %3 = alloca ptr, align 8
  %4 = alloca ptr, align 8
  %5 = alloca ptr, align 8
  store ptr %0, ptr %3, align 8, !tbaa !30
  store ptr %1, ptr %4, align 8, !tbaa !30
  call void @llvm.lifetime.start.p0(i64 8, ptr %5) #14
  %6 = load ptr, ptr %3, align 8, !tbaa !30
  %7 = load ptr, ptr %6, align 8, !tbaa !25
  store ptr %7, ptr %5, align 8, !tbaa !25
  %8 = load ptr, ptr %4, align 8, !tbaa !30
  %9 = load ptr, ptr %8, align 8, !tbaa !25
  %10 = load ptr, ptr %3, align 8, !tbaa !30
  store ptr %9, ptr %10, align 8, !tbaa !25
  %11 = load ptr, ptr %5, align 8, !tbaa !25
  %12 = load ptr, ptr %4, align 8, !tbaa !30
  store ptr %11, ptr %12, align 8, !tbaa !25
  call void @llvm.lifetime.end.p0(i64 8, ptr %5) #14
  ret void
}

; Function Attrs: mustprogress nounwind uwtable
define linkonce_odr void @_ZN3zmq12array_item_tILi1EE15set_array_indexEi(ptr noundef nonnull align 8 dereferenceable(12) %0, i32 noundef %1) #0 comdat align 2 {
  %3 = alloca ptr, align 8
  %4 = alloca i32, align 4
  store ptr %0, ptr %3, align 8, !tbaa !63
  store i32 %1, ptr %4, align 4, !tbaa !31
  %5 = load ptr, ptr %3, align 8
  %6 = load i32, ptr %4, align 4, !tbaa !31
  %7 = getelementptr inbounds nuw %"class.zmq::array_item_t", ptr %5, i32 0, i32 1
  store i32 %6, ptr %7, align 8, !tbaa !65
  ret void
}

; Function Attrs: mustprogress nounwind uwtable
define linkonce_odr noundef nonnull align 8 dereferenceable(8) ptr @_ZNSt6vectorIPN3zmq6pipe_tESaIS2_EEixEm(ptr noundef nonnull align 8 dereferenceable(24) %0, i64 noundef %1) #0 comdat align 2 {
  %3 = alloca ptr, align 8
  %4 = alloca i64, align 8
  store ptr %0, ptr %3, align 8, !tbaa !41
  store i64 %1, ptr %4, align 8, !tbaa !27
  %5 = load ptr, ptr %3, align 8
  %6 = getelementptr inbounds nuw %"struct.std::_Vector_base", ptr %5, i32 0, i32 0
  %7 = getelementptr inbounds nuw %"struct.std::_Vector_base<zmq::pipe_t *, std::allocator<zmq::pipe_t *>>::_Vector_impl_data", ptr %6, i32 0, i32 0
  %8 = load ptr, ptr %7, align 8, !tbaa !51
  %9 = load i64, ptr %4, align 8, !tbaa !27
  %10 = getelementptr inbounds nuw ptr, ptr %8, i64 %9
  ret ptr %10
}

; Function Attrs: mustprogress nounwind uwtable
define linkonce_odr void @_ZN3zmq7array_tINS_6pipe_tELi1EE4swapEmm(ptr noundef nonnull align 8 dereferenceable(24) %0, i64 noundef %1, i64 noundef %2) #0 comdat align 2 {
  %4 = alloca ptr, align 8
  %5 = alloca i64, align 8
  %6 = alloca i64, align 8
  store ptr %0, ptr %4, align 8, !tbaa !21
  store i64 %1, ptr %5, align 8, !tbaa !27
  store i64 %2, ptr %6, align 8, !tbaa !27
  %7 = load ptr, ptr %4, align 8
  %8 = getelementptr inbounds nuw %"class.zmq::array_t", ptr %7, i32 0, i32 0
  %9 = load i64, ptr %5, align 8, !tbaa !27
  %10 = call noundef nonnull align 8 dereferenceable(8) ptr @_ZNSt6vectorIPN3zmq6pipe_tESaIS2_EEixEm(ptr noundef nonnull align 8 dereferenceable(24) %8, i64 noundef %9) #14
  %11 = load ptr, ptr %10, align 8, !tbaa !25
  %12 = icmp ne ptr %11, null
  br i1 %12, label %13, label %25

13:                                               ; preds = %3
  %14 = getelementptr inbounds nuw %"class.zmq::array_t", ptr %7, i32 0, i32 0
  %15 = load i64, ptr %5, align 8, !tbaa !27
  %16 = call noundef nonnull align 8 dereferenceable(8) ptr @_ZNSt6vectorIPN3zmq6pipe_tESaIS2_EEixEm(ptr noundef nonnull align 8 dereferenceable(24) %14, i64 noundef %15) #14
  %17 = load ptr, ptr %16, align 8, !tbaa !25
  %18 = icmp eq ptr %17, null
  br i1 %18, label %21, label %19

19:                                               ; preds = %13
  %20 = getelementptr inbounds i8, ptr %17, i64 24
  br label %21

21:                                               ; preds = %19, %13
  %22 = phi ptr [ %20, %19 ], [ null, %13 ]
  %23 = load i64, ptr %6, align 8, !tbaa !27
  %24 = trunc i64 %23 to i32
  call void @_ZN3zmq12array_item_tILi1EE15set_array_indexEi(ptr noundef nonnull align 8 dereferenceable(12) %22, i32 noundef %24)
  br label %25

25:                                               ; preds = %21, %3
  %26 = getelementptr inbounds nuw %"class.zmq::array_t", ptr %7, i32 0, i32 0
  %27 = load i64, ptr %6, align 8, !tbaa !27
  %28 = call noundef nonnull align 8 dereferenceable(8) ptr @_ZNSt6vectorIPN3zmq6pipe_tESaIS2_EEixEm(ptr noundef nonnull align 8 dereferenceable(24) %26, i64 noundef %27) #14
  %29 = load ptr, ptr %28, align 8, !tbaa !25
  %30 = icmp ne ptr %29, null
  br i1 %30, label %31, label %43

31:                                               ; preds = %25
  %32 = getelementptr inbounds nuw %"class.zmq::array_t", ptr %7, i32 0, i32 0
  %33 = load i64, ptr %6, align 8, !tbaa !27
  %34 = call noundef nonnull align 8 dereferenceable(8) ptr @_ZNSt6vectorIPN3zmq6pipe_tESaIS2_EEixEm(ptr noundef nonnull align 8 dereferenceable(24) %32, i64 noundef %33) #14
  %35 = load ptr, ptr %34, align 8, !tbaa !25
  %36 = icmp eq ptr %35, null
  br i1 %36, label %39, label %37

37:                                               ; preds = %31
  %38 = getelementptr inbounds i8, ptr %35, i64 24
  br label %39

39:                                               ; preds = %37, %31
  %40 = phi ptr [ %38, %37 ], [ null, %31 ]
  %41 = load i64, ptr %5, align 8, !tbaa !27
  %42 = trunc i64 %41 to i32
  call void @_ZN3zmq12array_item_tILi1EE15set_array_indexEi(ptr noundef nonnull align 8 dereferenceable(12) %40, i32 noundef %42)
  br label %43

43:                                               ; preds = %39, %25
  %44 = getelementptr inbounds nuw %"class.zmq::array_t", ptr %7, i32 0, i32 0
  %45 = load i64, ptr %5, align 8, !tbaa !27
  %46 = call noundef nonnull align 8 dereferenceable(8) ptr @_ZNSt6vectorIPN3zmq6pipe_tESaIS2_EEixEm(ptr noundef nonnull align 8 dereferenceable(24) %44, i64 noundef %45) #14
  %47 = getelementptr inbounds nuw %"class.zmq::array_t", ptr %7, i32 0, i32 0
  %48 = load i64, ptr %6, align 8, !tbaa !27
  %49 = call noundef nonnull align 8 dereferenceable(8) ptr @_ZNSt6vectorIPN3zmq6pipe_tESaIS2_EEixEm(ptr noundef nonnull align 8 dereferenceable(24) %47, i64 noundef %48) #14
  call void @_ZSt4swapIPN3zmq6pipe_tEENSt9enable_ifIXsr6__and_ISt6__not_ISt15__is_tuple_likeIT_EESt21is_move_constructibleIS6_ESt18is_move_assignableIS6_EEE5valueEvE4typeERS6_SF_(ptr noundef nonnull align 8 dereferenceable(8) %46, ptr noundef nonnull align 8 dereferenceable(8) %49) #14
  ret void
}

; Function Attrs: mustprogress nounwind uwtable
define linkonce_odr noundef nonnull align 8 dereferenceable(8) ptr @_ZN3zmq7array_tINS_6pipe_tELi1EEixEm(ptr noundef nonnull align 8 dereferenceable(24) %0, i64 noundef %1) #0 comdat align 2 {
  %3 = alloca ptr, align 8
  %4 = alloca i64, align 8
  store ptr %0, ptr %3, align 8, !tbaa !21
  store i64 %1, ptr %4, align 8, !tbaa !27
  %5 = load ptr, ptr %3, align 8
  %6 = getelementptr inbounds nuw %"class.zmq::array_t", ptr %5, i32 0, i32 0
  %7 = load i64, ptr %4, align 8, !tbaa !27
  %8 = call noundef nonnull align 8 dereferenceable(8) ptr @_ZNSt6vectorIPN3zmq6pipe_tESaIS2_EEixEm(ptr noundef nonnull align 8 dereferenceable(24) %6, i64 noundef %7) #14
  ret ptr %8
}

; Function Attrs: mustprogress uwtable
define noundef i32 @_ZN3zmq4fq_t8recvpipeEPNS_5msg_tEPPNS_6pipe_tE(ptr noundef nonnull align 8 dereferenceable(41) %0, ptr noundef %1, ptr noundef %2) #6 align 2 {
  %4 = alloca i32, align 4
  %5 = alloca ptr, align 8
  %6 = alloca ptr, align 8
  %7 = alloca ptr, align 8
  %8 = alloca i32, align 4
  %9 = alloca ptr, align 8
  %10 = alloca i8, align 1
  %11 = alloca i32, align 4
  %12 = alloca ptr, align 8
  store ptr %0, ptr %5, align 8, !tbaa !3
  store ptr %1, ptr %6, align 8, !tbaa !28
  store ptr %2, ptr %7, align 8, !tbaa !30
  %13 = load ptr, ptr %5, align 8
  call void @llvm.lifetime.start.p0(i64 4, ptr %8) #14
  %14 = load ptr, ptr %6, align 8, !tbaa !28
  %15 = call noundef i32 @_ZN3zmq5msg_t5closeEv(ptr noundef nonnull align 8 dereferenceable(64) %14)
  store i32 %15, ptr %8, align 4, !tbaa !31
  br label %16

16:                                               ; preds = %3
  %17 = load i32, ptr %8, align 4, !tbaa !31
  %18 = icmp eq i32 %17, 0
  %19 = xor i1 %18, true
  %20 = zext i1 %19 to i64
  %21 = call i64 @llvm.expect.i64(i64 %20, i64 0)
  %22 = icmp ne i64 %21, 0
  br i1 %22, label %23, label %33

23:                                               ; preds = %16
  call void @llvm.lifetime.start.p0(i64 8, ptr %9) #14
  %24 = call ptr @__errno_location() #16
  %25 = load i32, ptr %24, align 4, !tbaa !31
  %26 = call ptr @strerror(i32 noundef %25) #14
  store ptr %26, ptr %9, align 8, !tbaa !33
  %27 = load ptr, ptr @stderr, align 8, !tbaa !23
  %28 = load ptr, ptr %9, align 8, !tbaa !33
  %29 = call i32 (ptr, ptr, ...) @fprintf(ptr noundef %27, ptr noundef @.str.3, ptr noundef %28, ptr noundef @.str.2, i32 noundef 56) #14
  %30 = load ptr, ptr @stderr, align 8, !tbaa !23
  %31 = call i32 @fflush(ptr noundef %30)
  %32 = load ptr, ptr %9, align 8, !tbaa !33
  call void @_ZN3zmq9zmq_abortEPKc(ptr noundef %32)
  call void @llvm.lifetime.end.p0(i64 8, ptr %9) #14
  br label %33

33:                                               ; preds = %23, %16
  br label %34

34:                                               ; preds = %33
  br label %35

35:                                               ; preds = %34
  br label %36

36:                                               ; preds = %117, %35
  %37 = getelementptr inbounds nuw %"class.zmq::fq_t", ptr %13, i32 0, i32 1
  %38 = load i64, ptr %37, align 8, !tbaa !8
  %39 = icmp ugt i64 %38, 0
  br i1 %39, label %40, label %118

40:                                               ; preds = %36
  call void @llvm.lifetime.start.p0(i64 1, ptr %10) #14
  %41 = getelementptr inbounds nuw %"class.zmq::fq_t", ptr %13, i32 0, i32 0
  %42 = getelementptr inbounds nuw %"class.zmq::fq_t", ptr %13, i32 0, i32 2
  %43 = load i64, ptr %42, align 8, !tbaa !19
  %44 = call noundef nonnull align 8 dereferenceable(8) ptr @_ZN3zmq7array_tINS_6pipe_tELi1EEixEm(ptr noundef nonnull align 8 dereferenceable(24) %41, i64 noundef %43)
  %45 = load ptr, ptr %44, align 8, !tbaa !25
  %46 = load ptr, ptr %6, align 8, !tbaa !28
  %47 = call noundef zeroext i1 @_ZN3zmq6pipe_t4readEPNS_5msg_tE(ptr noundef nonnull align 8 dereferenceable(328) %45, ptr noundef %46)
  %48 = zext i1 %47 to i8
  store i8 %48, ptr %10, align 1, !tbaa !35
  %49 = load i8, ptr %10, align 1, !tbaa !35, !range !36, !noundef !37
  %50 = trunc i8 %49 to i1
  br i1 %50, label %51, label %81

51:                                               ; preds = %40
  %52 = load ptr, ptr %7, align 8, !tbaa !30
  %53 = icmp ne ptr %52, null
  br i1 %53, label %54, label %61

54:                                               ; preds = %51
  %55 = getelementptr inbounds nuw %"class.zmq::fq_t", ptr %13, i32 0, i32 0
  %56 = getelementptr inbounds nuw %"class.zmq::fq_t", ptr %13, i32 0, i32 2
  %57 = load i64, ptr %56, align 8, !tbaa !19
  %58 = call noundef nonnull align 8 dereferenceable(8) ptr @_ZN3zmq7array_tINS_6pipe_tELi1EEixEm(ptr noundef nonnull align 8 dereferenceable(24) %55, i64 noundef %57)
  %59 = load ptr, ptr %58, align 8, !tbaa !25
  %60 = load ptr, ptr %7, align 8, !tbaa !30
  store ptr %59, ptr %60, align 8, !tbaa !25
  br label %61

61:                                               ; preds = %54, %51
  %62 = load ptr, ptr %6, align 8, !tbaa !28
  %63 = call noundef zeroext i8 @_ZNK3zmq5msg_t5flagsEv(ptr noundef nonnull align 8 dereferenceable(64) %62)
  %64 = zext i8 %63 to i32
  %65 = and i32 %64, 1
  %66 = icmp ne i32 %65, 0
  %67 = getelementptr inbounds nuw %"class.zmq::fq_t", ptr %13, i32 0, i32 3
  %68 = zext i1 %66 to i8
  store i8 %68, ptr %67, align 8, !tbaa !20
  %69 = getelementptr inbounds nuw %"class.zmq::fq_t", ptr %13, i32 0, i32 3
  %70 = load i8, ptr %69, align 8, !tbaa !20, !range !36, !noundef !37
  %71 = trunc i8 %70 to i1
  br i1 %71, label %80, label %72

72:                                               ; preds = %61
  %73 = getelementptr inbounds nuw %"class.zmq::fq_t", ptr %13, i32 0, i32 2
  %74 = load i64, ptr %73, align 8, !tbaa !19
  %75 = add i64 %74, 1
  %76 = getelementptr inbounds nuw %"class.zmq::fq_t", ptr %13, i32 0, i32 1
  %77 = load i64, ptr %76, align 8, !tbaa !8
  %78 = urem i64 %75, %77
  %79 = getelementptr inbounds nuw %"class.zmq::fq_t", ptr %13, i32 0, i32 2
  store i64 %78, ptr %79, align 8, !tbaa !19
  br label %80

80:                                               ; preds = %72, %61
  store i32 0, ptr %4, align 4
  store i32 1, ptr %11, align 4
  br label %115

81:                                               ; preds = %40
  br label %82

82:                                               ; preds = %81
  %83 = getelementptr inbounds nuw %"class.zmq::fq_t", ptr %13, i32 0, i32 3
  %84 = load i8, ptr %83, align 8, !tbaa !20, !range !36, !noundef !37
  %85 = trunc i8 %84 to i1
  %86 = xor i1 %85, true
  %87 = xor i1 %86, true
  %88 = zext i1 %87 to i64
  %89 = call i64 @llvm.expect.i64(i64 %88, i64 0)
  %90 = icmp ne i64 %89, 0
  br i1 %90, label %91, label %96

91:                                               ; preds = %82
  %92 = load ptr, ptr @stderr, align 8, !tbaa !23
  %93 = call i32 (ptr, ptr, ...) @fprintf(ptr noundef %92, ptr noundef @.str, ptr noundef @.str.4, ptr noundef @.str.2, i32 noundef 80) #14
  %94 = load ptr, ptr @stderr, align 8, !tbaa !23
  %95 = call i32 @fflush(ptr noundef %94)
  call void @_ZN3zmq9zmq_abortEPKc(ptr noundef @.str.4)
  br label %96

96:                                               ; preds = %91, %82
  br label %97

97:                                               ; preds = %96
  br label %98

98:                                               ; preds = %97
  %99 = getelementptr inbounds nuw %"class.zmq::fq_t", ptr %13, i32 0, i32 1
  %100 = load i64, ptr %99, align 8, !tbaa !8
  %101 = add i64 %100, -1
  store i64 %101, ptr %99, align 8, !tbaa !8
  %102 = getelementptr inbounds nuw %"class.zmq::fq_t", ptr %13, i32 0, i32 0
  %103 = getelementptr inbounds nuw %"class.zmq::fq_t", ptr %13, i32 0, i32 2
  %104 = load i64, ptr %103, align 8, !tbaa !19
  %105 = getelementptr inbounds nuw %"class.zmq::fq_t", ptr %13, i32 0, i32 1
  %106 = load i64, ptr %105, align 8, !tbaa !8
  call void @_ZN3zmq7array_tINS_6pipe_tELi1EE4swapEmm(ptr noundef nonnull align 8 dereferenceable(24) %102, i64 noundef %104, i64 noundef %106)
  %107 = getelementptr inbounds nuw %"class.zmq::fq_t", ptr %13, i32 0, i32 2
  %108 = load i64, ptr %107, align 8, !tbaa !19
  %109 = getelementptr inbounds nuw %"class.zmq::fq_t", ptr %13, i32 0, i32 1
  %110 = load i64, ptr %109, align 8, !tbaa !8
  %111 = icmp eq i64 %108, %110
  br i1 %111, label %112, label %114

112:                                              ; preds = %98
  %113 = getelementptr inbounds nuw %"class.zmq::fq_t", ptr %13, i32 0, i32 2
  store i64 0, ptr %113, align 8, !tbaa !19
  br label %114

114:                                              ; preds = %112, %98
  store i32 0, ptr %11, align 4
  br label %115

115:                                              ; preds = %114, %80
  call void @llvm.lifetime.end.p0(i64 1, ptr %10) #14
  %116 = load i32, ptr %11, align 4
  switch i32 %116, label %142 [
    i32 0, label %117
  ]

117:                                              ; preds = %115
  br label %36, !llvm.loop !38

118:                                              ; preds = %36
  %119 = load ptr, ptr %6, align 8, !tbaa !28
  %120 = call noundef i32 @_ZN3zmq5msg_t4initEv(ptr noundef nonnull align 8 dereferenceable(64) %119)
  store i32 %120, ptr %8, align 4, !tbaa !31
  br label %121

121:                                              ; preds = %118
  %122 = load i32, ptr %8, align 4, !tbaa !31
  %123 = icmp eq i32 %122, 0
  %124 = xor i1 %123, true
  %125 = zext i1 %124 to i64
  %126 = call i64 @llvm.expect.i64(i64 %125, i64 0)
  %127 = icmp ne i64 %126, 0
  br i1 %127, label %128, label %138

128:                                              ; preds = %121
  call void @llvm.lifetime.start.p0(i64 8, ptr %12) #14
  %129 = call ptr @__errno_location() #16
  %130 = load i32, ptr %129, align 4, !tbaa !31
  %131 = call ptr @strerror(i32 noundef %130) #14
  store ptr %131, ptr %12, align 8, !tbaa !33
  %132 = load ptr, ptr @stderr, align 8, !tbaa !23
  %133 = load ptr, ptr %12, align 8, !tbaa !33
  %134 = call i32 (ptr, ptr, ...) @fprintf(ptr noundef %132, ptr noundef @.str.3, ptr noundef %133, ptr noundef @.str.2, i32 noundef 91) #14
  %135 = load ptr, ptr @stderr, align 8, !tbaa !23
  %136 = call i32 @fflush(ptr noundef %135)
  %137 = load ptr, ptr %12, align 8, !tbaa !33
  call void @_ZN3zmq9zmq_abortEPKc(ptr noundef %137)
  call void @llvm.lifetime.end.p0(i64 8, ptr %12) #14
  br label %138

138:                                              ; preds = %128, %121
  br label %139

139:                                              ; preds = %138
  br label %140

140:                                              ; preds = %139
  %141 = call ptr @__errno_location() #16
  store i32 11, ptr %141, align 4, !tbaa !31
  store i32 -1, ptr %4, align 4
  store i32 1, ptr %11, align 4
  br label %142

142:                                              ; preds = %140, %115
  call void @llvm.lifetime.end.p0(i64 4, ptr %8) #14
  %143 = load i32, ptr %4, align 4
  ret i32 %143
}