; Function Attrs: mustprogress uwtable
define noundef range(i32 -1, 1) i32 @_ZN3zmq4fq_t8recvpipeEPNS_5msg_tEPPNS_6pipe_tE(ptr noundef nonnull align 8 captures(none) dereferenceable(41) %0, ptr noundef nonnull %1, ptr noundef writeonly %2) local_unnamed_addr #6 align 2 {
  %4 = tail call noundef i32 @_ZN3zmq5msg_t5closeEv(ptr noundef nonnull align 8 dereferenceable(64) %1)
  %.not = icmp eq i32 %4, 0
  br i1 %.not, label %13, label %5, !prof !9

5:                                                ; preds = %3
  %6 = tail call ptr @__errno_location() #23
  %7 = load i32, ptr %6, align 4, !tbaa !31
  %8 = tail call ptr @strerror(i32 noundef %7) #20
  %9 = load ptr, ptr @stderr, align 8, !tbaa !10
  %10 = tail call i32 (ptr, ptr, ...) @fprintf(ptr noundef %9, ptr noundef nonnull @.str.3, ptr noundef %8, ptr noundef nonnull @.str.2, i32 noundef 56) #17
  %11 = load ptr, ptr @stderr, align 8, !tbaa !10
  %12 = tail call i32 @fflush(ptr noundef %11)
  tail call void @_ZN3zmq9zmq_abortEPKc(ptr noundef %8)
  br label %13

13:                                               ; preds = %5, %3
  %14 = getelementptr inbounds nuw i8, ptr %0, i64 24
  %15 = load i64, ptr %14, align 8, !tbaa !21
  %.not1723 = icmp eq i64 %15, 0
  br i1 %.not1723, label %._crit_edge, label %.lr.ph

.lr.ph:                                           ; preds = %13
  %16 = getelementptr inbounds nuw i8, ptr %0, i64 32
  %17 = getelementptr inbounds nuw i8, ptr %0, i64 40
  %.pre = load i64, ptr %16, align 8, !tbaa !29
  %.pre24 = load ptr, ptr %0, align 8, !tbaa !12
  br label %18

18:                                               ; preds = %.lr.ph, %64
  %19 = phi ptr [ %.pre24, %.lr.ph ], [ %50, %64 ]
  %20 = phi i64 [ %.pre, %.lr.ph ], [ %65, %64 ]
  %21 = getelementptr inbounds nuw ptr, ptr %19, i64 %20
  %22 = load ptr, ptr %21, align 8, !tbaa !19
  %23 = tail call noundef zeroext i1 @_ZN3zmq6pipe_t4readEPNS_5msg_tE(ptr noundef nonnull align 8 dereferenceable(328) %22, ptr noundef nonnull %1)
  br i1 %23, label %24, label %38

24:                                               ; preds = %18
  %.not19 = icmp eq ptr %2, null
  br i1 %.not19, label %30, label %25

25:                                               ; preds = %24
  %26 = load i64, ptr %16, align 8, !tbaa !29
  %27 = load ptr, ptr %0, align 8, !tbaa !12
  %28 = getelementptr inbounds nuw ptr, ptr %27, i64 %26
  %29 = load ptr, ptr %28, align 8, !tbaa !19
  store ptr %29, ptr %2, align 8, !tbaa !19
  br label %30

30:                                               ; preds = %25, %24
  %31 = tail call noundef zeroext i8 @_ZNK3zmq5msg_t5flagsEv(ptr noundef nonnull align 8 dereferenceable(64) %1)
  %32 = and i8 %31, 1
  %.not20 = icmp eq i8 %32, 0
  store i8 %32, ptr %17, align 8, !tbaa !32
  br i1 %.not20, label %33, label %.thread

33:                                               ; preds = %30
  %34 = load i64, ptr %16, align 8, !tbaa !29
  %35 = add i64 %34, 1
  %36 = load i64, ptr %14, align 8, !tbaa !21
  %37 = urem i64 %35, %36
  store i64 %37, ptr %16, align 8, !tbaa !29
  br label %.thread

38:                                               ; preds = %18
  %39 = load i8, ptr %17, align 8, !tbaa !32, !range !33, !noundef !30
  %40 = trunc nuw i8 %39 to i1
  br i1 %40, label %41, label %46, !prof !34

41:                                               ; preds = %38
  %42 = load ptr, ptr @stderr, align 8, !tbaa !10
  %43 = tail call i32 (ptr, ptr, ...) @fprintf(ptr noundef %42, ptr noundef nonnull @.str, ptr noundef nonnull @.str.4, ptr noundef nonnull @.str.2, i32 noundef 80) #17
  %44 = load ptr, ptr @stderr, align 8, !tbaa !10
  %45 = tail call i32 @fflush(ptr noundef %44)
  tail call void @_ZN3zmq9zmq_abortEPKc(ptr noundef nonnull @.str.4)
  br label %46

46:                                               ; preds = %41, %38
  %47 = load i64, ptr %14, align 8, !tbaa !21
  %48 = add i64 %47, -1
  store i64 %48, ptr %14, align 8, !tbaa !21
  %49 = load i64, ptr %16, align 8, !tbaa !29
  %50 = load ptr, ptr %0, align 8, !tbaa !12
  %51 = getelementptr inbounds nuw ptr, ptr %50, i64 %49
  %52 = load ptr, ptr %51, align 8, !tbaa !19
  %.not.i = icmp eq ptr %52, null
  br i1 %.not.i, label %56, label %53

53:                                               ; preds = %46
  %54 = trunc i64 %48 to i32
  %55 = getelementptr inbounds nuw i8, ptr %52, i64 32
  store i32 %54, ptr %55, align 8, !tbaa !15
  br label %56

56:                                               ; preds = %53, %46
  %57 = getelementptr inbounds nuw ptr, ptr %50, i64 %48
  %58 = load ptr, ptr %57, align 8, !tbaa !19
  %.not8.i = icmp eq ptr %58, null
  br i1 %.not8.i, label %_ZN3zmq7array_tINS_6pipe_tELi1EE4swapEmm.exit, label %59

59:                                               ; preds = %56
  %60 = trunc i64 %49 to i32
  %61 = getelementptr inbounds nuw i8, ptr %58, i64 32
  store i32 %60, ptr %61, align 8, !tbaa !15
  br label %_ZN3zmq7array_tINS_6pipe_tELi1EE4swapEmm.exit

_ZN3zmq7array_tINS_6pipe_tELi1EE4swapEmm.exit:    ; preds = %56, %59
  store ptr %58, ptr %51, align 8, !tbaa !19
  store ptr %52, ptr %57, align 8, !tbaa !19
  %62 = icmp eq i64 %49, %48
  br i1 %62, label %63, label %64

63:                                               ; preds = %_ZN3zmq7array_tINS_6pipe_tELi1EE4swapEmm.exit
  store i64 0, ptr %16, align 8, !tbaa !29
  br label %64

64:                                               ; preds = %_ZN3zmq7array_tINS_6pipe_tELi1EE4swapEmm.exit, %63
  %65 = phi i64 [ %49, %_ZN3zmq7array_tINS_6pipe_tELi1EE4swapEmm.exit ], [ 0, %63 ]
  %.not17 = icmp eq i64 %48, 0
  br i1 %.not17, label %._crit_edge, label %18

._crit_edge:                                      ; preds = %64, %13
  %66 = tail call noundef i32 @_ZN3zmq5msg_t4initEv(ptr noundef nonnull align 8 dereferenceable(64) %1)
  %.not18 = icmp eq i32 %66, 0
  %.pre25 = tail call ptr @__errno_location() #23
  br i1 %.not18, label %._crit_edge._crit_edge, label %67, !prof !9

67:                                               ; preds = %._crit_edge
  %68 = load i32, ptr %.pre25, align 4, !tbaa !31
  %69 = tail call ptr @strerror(i32 noundef %68) #20
  %70 = load ptr, ptr @stderr, align 8, !tbaa !10
  %71 = tail call i32 (ptr, ptr, ...) @fprintf(ptr noundef %70, ptr noundef nonnull @.str.3, ptr noundef %69, ptr noundef nonnull @.str.2, i32 noundef 91) #17
  %72 = load ptr, ptr @stderr, align 8, !tbaa !10
  %73 = tail call i32 @fflush(ptr noundef %72)
  tail call void @_ZN3zmq9zmq_abortEPKc(ptr noundef %69)
  br label %._crit_edge._crit_edge

._crit_edge._crit_edge:                           ; preds = %._crit_edge, %67
  store i32 11, ptr %.pre25, align 4, !tbaa !31
  br label %.thread

.thread:                                          ; preds = %33, %30, %._crit_edge._crit_edge
  %.2 = phi i32 [ -1, %._crit_edge._crit_edge ], [ 0, %30 ], [ 0, %33 ]
  ret i32 %.2
}